#include <math.h>
#include <stdio.h>
#include <stdlib.h>
#include <string.h>

int N;
int K;
int Monkey(int m,int n,int k)
{
	if(n==1)
		return (m%N==k&&(m-k)/N>=1)?1:0;
	else{
		if(m%N==k)
			return Monkey( (m-k)*(N-1)/N,n-1,k);
		else
			return 0;
	}
}

void main()
{
	int m;
	scanf("%d%d",&N,&K);
	for(m=(int)(pow(N,K)/pow(N-1,K-1));;m++){
		if(Monkey(m,N,K))
			break;
	}
	printf("%d\n",m);
}